; Function Attrs: nofree nounwind uwtable
define internal i32 @file_gets(ptr noundef readonly captures(none) %0, ptr noundef initializes((0, 1)) %1, i32 noundef %2) #7 {
  store i8 0, ptr %1, align 1, !tbaa !19
  %4 = getelementptr inbounds nuw i8, ptr %0, i64 64
  %5 = load ptr, ptr %4, align 8, !tbaa !18
  %6 = tail call ptr @fgets(ptr noundef nonnull %1, i32 noundef %2, ptr noundef %5)
  %.not = icmp eq ptr %6, null
  br i1 %.not, label %12, label %7

7:                                                ; preds = %3
  %8 = load i8, ptr %1, align 1, !tbaa !19
  %.not10 = icmp eq i8 %8, 0
  br i1 %.not10, label %12, label %9

9:                                                ; preds = %7
  %10 = tail call i64 @strlen(ptr noundef nonnull dereferenceable(1) %1) #11
  %11 = trunc i64 %10 to i32
  br label %12

12:                                               ; preds = %7, %9, %3
  %.0 = phi i32 [ %11, %9 ], [ 0, %7 ], [ 0, %3 ]
  ret i32 %.0
}